target datalayout = "e-m:e-p270:32:32-p271:32:32-p272:64:64-i64:64-i128:128-f80:128-n8:16:32:64-S128"
target triple = "x86_64-pc-linux-gnu"

@hf_isakmp_typepayload = internal global i32 0, align 4
@hf_isakmp_sat_next_payload = internal global i32 0, align 4
@hf_isakmp_sat_reserved = internal global i32 0, align 4
@hf_isakmp_sat_payload_len = internal global i32 0, align 4
@hf_isakmp_sat_protocol_id = internal global i32 0, align 4
@hf_isakmp_sat_protocol = internal global i32 0, align 4
@hf_isakmp_sat_src_id_type = internal global i32 0, align 4
@hf_isakmp_sat_src_id_port = internal global i32 0, align 4
@hf_isakmp_sat_src_id_length = internal global i32 0, align 4
@hf_isakmp_sat_src_id_data = internal global i32 0, align 4
@hf_isakmp_sat_dst_id_type = internal global i32 0, align 4
@hf_isakmp_sat_dst_id_port = internal global i32 0, align 4
@hf_isakmp_sat_dst_id_length = internal global i32 0, align 4
@hf_isakmp_sat_dst_id_data = internal global i32 0, align 4
@hf_isakmp_sat_transform_id = internal global i32 0, align 4
@hf_isakmp_sat_spi = internal global i32 0, align 4
@hf_isakmp_sat_payload = internal global i32 0, align 4
@ett_isakmp_payload = internal global i32 0, align 4
@ett_isakmp_id = internal global i32 0, align 4

; Function Attrs: null_pointer_is_valid sspstrong uwtable
define internal void @dissect_sa_tek(ptr noundef %0, ptr noundef %1, i32 noundef %2, i32 noundef %3, ptr noundef %4) #0 {
  %6 = alloca ptr, align 8
  %7 = alloca ptr, align 8
  %8 = alloca i32, align 4
  %9 = alloca i32, align 4
  %10 = alloca ptr, align 8
  %11 = alloca i32, align 4
  %12 = alloca i32, align 4
  %13 = alloca i32, align 4
  %14 = alloca i32, align 4
  %15 = alloca i32, align 4
  %16 = alloca i8, align 1
  %17 = alloca i8, align 1
  %18 = alloca i16, align 2
  %19 = alloca ptr, align 8
  %20 = alloca ptr, align 8
  %21 = alloca ptr, align 8
  %22 = alloca ptr, align 8
  store ptr %0, ptr %6, align 8
  store ptr %1, ptr %7, align 8
  store i32 %2, ptr %8, align 4
  store i32 %3, ptr %9, align 4
  store ptr %4, ptr %10, align 8
  call void @llvm.lifetime.start.p0(i64 4, ptr %11) #16
  store i32 0, ptr %11, align 4
  call void @llvm.lifetime.start.p0(i64 4, ptr %12) #16
  store i32 0, ptr %12, align 4
  call void @llvm.lifetime.start.p0(i64 4, ptr %13) #16
  call void @llvm.lifetime.start.p0(i64 4, ptr %14) #16
  call void @llvm.lifetime.start.p0(i64 4, ptr %15) #16
  %23 = load i32, ptr %8, align 4
  %24 = load i32, ptr %9, align 4
  %25 = add i32 %23, %24
  store i32 %25, ptr %11, align 4
  call void @llvm.lifetime.start.p0(i64 1, ptr %16) #16
  call void @llvm.lifetime.start.p0(i64 1, ptr %17) #16
  call void @llvm.lifetime.start.p0(i64 2, ptr %18) #16
  call void @llvm.lifetime.start.p0(i64 8, ptr %19) #16
  call void @llvm.lifetime.start.p0(i64 8, ptr %20) #16
  call void @llvm.lifetime.start.p0(i64 8, ptr %21) #16
  call void @llvm.lifetime.start.p0(i64 8, ptr %22) #16
  %26 = load ptr, ptr %6, align 8
  %27 = load i32, ptr %8, align 4
  %28 = call zeroext i8 @tvb_get_uint8(ptr noundef %26, i32 noundef %27)
  store i8 %28, ptr %16, align 1
  %29 = load ptr, ptr %6, align 8
  %30 = load i32, ptr %8, align 4
  %31 = add i32 %30, 2
  %32 = call zeroext i16 @tvb_get_ntohs(ptr noundef %29, i32 noundef %31)
  store i16 %32, ptr %18, align 2
  %33 = load i32, ptr %8, align 4
  %34 = load i16, ptr %18, align 2
  %35 = zext i16 %34 to i32
  %36 = add i32 %33, %35
  store i32 %36, ptr %12, align 4
  %37 = load ptr, ptr %10, align 8
  %38 = load i32, ptr @hf_isakmp_typepayload, align 4
  %39 = load ptr, ptr %6, align 8
  %40 = load i32, ptr %8, align 4
  %41 = load i16, ptr %18, align 2
  %42 = zext i16 %41 to i32
  %43 = call ptr @proto_tree_add_uint(ptr noundef %37, i32 noundef %38, ptr noundef %39, i32 noundef %40, i32 noundef %42, i32 noundef 16)
  store ptr %43, ptr %19, align 8
  %44 = load ptr, ptr %19, align 8
  %45 = load i32, ptr @ett_isakmp_payload, align 4
  %46 = call ptr @proto_item_add_subtree(ptr noundef %44, i32 noundef %45)
  store ptr %46, ptr %20, align 8
  %47 = load ptr, ptr %20, align 8
  %48 = load i32, ptr @hf_isakmp_sat_next_payload, align 4
  %49 = load ptr, ptr %6, align 8
  %50 = load i32, ptr %8, align 4
  %51 = call ptr @proto_tree_add_item(ptr noundef %47, i32 noundef %48, ptr noundef %49, i32 noundef %50, i32 noundef 1, i32 noundef 0)
  %52 = load ptr, ptr %20, align 8
  %53 = load i32, ptr @hf_isakmp_sat_reserved, align 4
  %54 = load ptr, ptr %6, align 8
  %55 = load i32, ptr %8, align 4
  %56 = add i32 %55, 1
  %57 = call ptr @proto_tree_add_item(ptr noundef %52, i32 noundef %53, ptr noundef %54, i32 noundef %56, i32 noundef 1, i32 noundef 0)
  %58 = load ptr, ptr %20, align 8
  %59 = load i32, ptr @hf_isakmp_sat_payload_len, align 4
  %60 = load ptr, ptr %6, align 8
  %61 = load i32, ptr %8, align 4
  %62 = add i32 %61, 2
  %63 = call ptr @proto_tree_add_item(ptr noundef %58, i32 noundef %59, ptr noundef %60, i32 noundef %62, i32 noundef 2, i32 noundef 0)
  %64 = load i32, ptr %8, align 4
  %65 = add i32 %64, 4
  store i32 %65, ptr %8, align 4
  %66 = load ptr, ptr %20, align 8
  %67 = load i32, ptr @hf_isakmp_sat_protocol_id, align 4
  %68 = load ptr, ptr %6, align 8
  %69 = load i32, ptr %8, align 4
  %70 = call ptr @proto_tree_add_item_ret_uint(ptr noundef %66, i32 noundef %67, ptr noundef %68, i32 noundef %69, i32 noundef 1, i32 noundef 0, ptr noundef %13)
  %71 = load i32, ptr %8, align 4
  %72 = add i32 %71, 1
  store i32 %72, ptr %8, align 4
  %73 = load i32, ptr %13, align 4
  %74 = icmp eq i32 %73, 1
  br i1 %74, label %78, label %75

75:                                               ; preds = %5
  %76 = load i32, ptr %13, align 4
  %77 = icmp eq i32 %76, 2
  br i1 %77, label %78, label %219

78:                                               ; preds = %75, %5
  %79 = load ptr, ptr %20, align 8
  %80 = load i32, ptr @hf_isakmp_sat_protocol, align 4
  %81 = load ptr, ptr %6, align 8
  %82 = load i32, ptr %8, align 4
  %83 = call ptr @proto_tree_add_item(ptr noundef %79, i32 noundef %80, ptr noundef %81, i32 noundef %82, i32 noundef 1, i32 noundef 0)
  %84 = load i32, ptr %8, align 4
  %85 = add i32 %84, 1
  store i32 %85, ptr %8, align 4
  %86 = load ptr, ptr %6, align 8
  %87 = load i32, ptr %8, align 4
  %88 = call zeroext i8 @tvb_get_uint8(ptr noundef %86, i32 noundef %87)
  store i8 %88, ptr %17, align 1
  %89 = load ptr, ptr %20, align 8
  %90 = load i32, ptr @hf_isakmp_sat_src_id_type, align 4
  %91 = load ptr, ptr %6, align 8
  %92 = load i32, ptr %8, align 4
  %93 = call ptr @proto_tree_add_item(ptr noundef %89, i32 noundef %90, ptr noundef %91, i32 noundef %92, i32 noundef 1, i32 noundef 0)
  %94 = load i32, ptr %8, align 4
  %95 = add i32 %94, 1
  store i32 %95, ptr %8, align 4
  %96 = load ptr, ptr %20, align 8
  %97 = load i32, ptr @hf_isakmp_sat_src_id_port, align 4
  %98 = load ptr, ptr %6, align 8
  %99 = load i32, ptr %8, align 4
  %100 = call ptr @proto_tree_add_item(ptr noundef %96, i32 noundef %97, ptr noundef %98, i32 noundef %99, i32 noundef 2, i32 noundef 0)
  %101 = load i32, ptr %8, align 4
  %102 = add i32 %101, 2
  store i32 %102, ptr %8, align 4
  %103 = load ptr, ptr %20, align 8
  %104 = load i32, ptr @hf_isakmp_sat_src_id_length, align 4
  %105 = load ptr, ptr %6, align 8
  %106 = load i32, ptr %8, align 4
  %107 = call ptr @proto_tree_add_item_ret_uint(ptr noundef %103, i32 noundef %104, ptr noundef %105, i32 noundef %106, i32 noundef 2, i32 noundef 0, ptr noundef %14)
  %108 = load i32, ptr %8, align 4
  %109 = add i32 %108, 2
  store i32 %109, ptr %8, align 4
  %110 = load i32, ptr %14, align 4
  %111 = icmp ugt i32 %110, 0
  br i1 %111, label %112, label %132

112:                                              ; preds = %78
  %113 = load ptr, ptr %20, align 8
  %114 = load i32, ptr @hf_isakmp_sat_src_id_data, align 4
  %115 = load ptr, ptr %6, align 8
  %116 = load i32, ptr %8, align 4
  %117 = load i32, ptr %14, align 4
  %118 = call ptr @proto_tree_add_item(ptr noundef %113, i32 noundef %114, ptr noundef %115, i32 noundef %116, i32 noundef %117, i32 noundef 0)
  store ptr %118, ptr %21, align 8
  %119 = load ptr, ptr %21, align 8
  %120 = load i32, ptr @ett_isakmp_id, align 4
  %121 = call ptr @proto_item_add_subtree(ptr noundef %119, i32 noundef %120)
  store ptr %121, ptr %22, align 8
  %122 = load ptr, ptr %6, align 8
  %123 = load i32, ptr %8, align 4
  %124 = load i32, ptr %14, align 4
  %125 = load i8, ptr %17, align 1
  %126 = load ptr, ptr %22, align 8
  %127 = load ptr, ptr %21, align 8
  %128 = load ptr, ptr %7, align 8
  call void @dissect_id_type(ptr noundef %122, i32 noundef %123, i32 noundef %124, i8 noundef zeroext %125, ptr noundef %126, ptr noundef %127, ptr noundef %128)
  %129 = load i32, ptr %14, align 4
  %130 = load i32, ptr %8, align 4
  %131 = add i32 %130, %129
  store i32 %131, ptr %8, align 4
  br label %132

132:                                              ; preds = %112, %78
  %133 = load ptr, ptr %6, align 8
  %134 = load i32, ptr %8, align 4
  %135 = call zeroext i8 @tvb_get_uint8(ptr noundef %133, i32 noundef %134)
  store i8 %135, ptr %17, align 1
  %136 = load ptr, ptr %20, align 8
  %137 = load i32, ptr @hf_isakmp_sat_dst_id_type, align 4
  %138 = load ptr, ptr %6, align 8
  %139 = load i32, ptr %8, align 4
  %140 = call ptr @proto_tree_add_item(ptr noundef %136, i32 noundef %137, ptr noundef %138, i32 noundef %139, i32 noundef 1, i32 noundef 0)
  %141 = load i32, ptr %8, align 4
  %142 = add i32 %141, 1
  store i32 %142, ptr %8, align 4
  %143 = load ptr, ptr %20, align 8
  %144 = load i32, ptr @hf_isakmp_sat_dst_id_port, align 4
  %145 = load ptr, ptr %6, align 8
  %146 = load i32, ptr %8, align 4
  %147 = call ptr @proto_tree_add_item(ptr noundef %143, i32 noundef %144, ptr noundef %145, i32 noundef %146, i32 noundef 2, i32 noundef 0)
  %148 = load i32, ptr %8, align 4
  %149 = add i32 %148, 2
  store i32 %149, ptr %8, align 4
  %150 = load ptr, ptr %20, align 8
  %151 = load i32, ptr @hf_isakmp_sat_dst_id_length, align 4
  %152 = load ptr, ptr %6, align 8
  %153 = load i32, ptr %8, align 4
  %154 = call ptr @proto_tree_add_item_ret_uint(ptr noundef %150, i32 noundef %151, ptr noundef %152, i32 noundef %153, i32 noundef 2, i32 noundef 0, ptr noundef %15)
  %155 = load i32, ptr %8, align 4
  %156 = add i32 %155, 2
  store i32 %156, ptr %8, align 4
  %157 = load i32, ptr %15, align 4
  %158 = icmp ugt i32 %157, 0
  br i1 %158, label %159, label %179

159:                                              ; preds = %132
  %160 = load ptr, ptr %20, align 8
  %161 = load i32, ptr @hf_isakmp_sat_dst_id_data, align 4
  %162 = load ptr, ptr %6, align 8
  %163 = load i32, ptr %8, align 4
  %164 = load i32, ptr %15, align 4
  %165 = call ptr @proto_tree_add_item(ptr noundef %160, i32 noundef %161, ptr noundef %162, i32 noundef %163, i32 noundef %164, i32 noundef 0)
  store ptr %165, ptr %21, align 8
  %166 = load ptr, ptr %21, align 8
  %167 = load i32, ptr @ett_isakmp_id, align 4
  %168 = call ptr @proto_item_add_subtree(ptr noundef %166, i32 noundef %167)
  store ptr %168, ptr %22, align 8
  %169 = load ptr, ptr %6, align 8
  %170 = load i32, ptr %8, align 4
  %171 = load i32, ptr %15, align 4
  %172 = load i8, ptr %17, align 1
  %173 = load ptr, ptr %22, align 8
  %174 = load ptr, ptr %21, align 8
  %175 = load ptr, ptr %7, align 8
  call void @dissect_id_type(ptr noundef %169, i32 noundef %170, i32 noundef %171, i8 noundef zeroext %172, ptr noundef %173, ptr noundef %174, ptr noundef %175)
  %176 = load i32, ptr %15, align 4
  %177 = load i32, ptr %8, align 4
  %178 = add i32 %177, %176
  store i32 %178, ptr %8, align 4
  br label %179

179:                                              ; preds = %159, %132
  %180 = load ptr, ptr %20, align 8
  %181 = load i32, ptr @hf_isakmp_sat_transform_id, align 4
  %182 = load ptr, ptr %6, align 8
  %183 = load i32, ptr %8, align 4
  %184 = call ptr @proto_tree_add_item(ptr noundef %180, i32 noundef %181, ptr noundef %182, i32 noundef %183, i32 noundef 1, i32 noundef 0)
  %185 = load i32, ptr %8, align 4
  %186 = add i32 %185, 1
  store i32 %186, ptr %8, align 4
  %187 = load ptr, ptr %20, align 8
  %188 = load i32, ptr @hf_isakmp_sat_spi, align 4
  %189 = load ptr, ptr %6, align 8
  %190 = load i32, ptr %8, align 4
  %191 = call ptr @proto_tree_add_item(ptr noundef %187, i32 noundef %188, ptr noundef %189, i32 noundef %190, i32 noundef 4, i32 noundef 0)
  %192 = load i32, ptr %8, align 4
  %193 = add i32 %192, 4
  store i32 %193, ptr %8, align 4
  br label %194

194:                                              ; preds = %198, %179
  %195 = load i32, ptr %8, align 4
  %196 = load i32, ptr %12, align 4
  %197 = icmp slt i32 %195, %196
  br i1 %197, label %198, label %206

198:                                              ; preds = %194
  %199 = load ptr, ptr %6, align 8
  %200 = load ptr, ptr %7, align 8
  %201 = load ptr, ptr %20, align 8
  %202 = load i32, ptr %8, align 4
  %203 = call i32 @dissect_ipsec_attribute(ptr noundef %199, ptr noundef %200, ptr noundef %201, i32 noundef %202)
  %204 = load i32, ptr %8, align 4
  %205 = add i32 %204, %203
  store i32 %205, ptr %8, align 4
  br label %194, !llvm.loop !26

206:                                              ; preds = %194
  %207 = load i8, ptr %16, align 1
  %208 = zext i8 %207 to i32
  %209 = icmp eq i32 16, %208
  br i1 %209, label %210, label %218

210:                                              ; preds = %206
  %211 = load ptr, ptr %7, align 8
  call void @increment_dissection_depth(ptr noundef %211)
  %212 = load ptr, ptr %6, align 8
  %213 = load ptr, ptr %7, align 8
  %214 = load i32, ptr %8, align 4
  %215 = load i32, ptr %9, align 4
  %216 = load ptr, ptr %10, align 8
  call void @dissect_sa_tek(ptr noundef %212, ptr noundef %213, i32 noundef %214, i32 noundef %215, ptr noundef %216)
  %217 = load ptr, ptr %7, align 8
  call void @decrement_dissection_depth(ptr noundef %217)
  br label %218

218:                                              ; preds = %210, %206
  br label %228

219:                                              ; preds = %75
  %220 = load ptr, ptr %20, align 8
  %221 = load i32, ptr @hf_isakmp_sat_payload, align 4
  %222 = load ptr, ptr %6, align 8
  %223 = load i32, ptr %8, align 4
  %224 = load i32, ptr %11, align 4
  %225 = load i32, ptr %8, align 4
  %226 = sub i32 %224, %225
  %227 = call ptr @proto_tree_add_item(ptr noundef %220, i32 noundef %221, ptr noundef %222, i32 noundef %223, i32 noundef %226, i32 noundef 0)
  br label %228

228:                                              ; preds = %219, %218
  call void @llvm.lifetime.end.p0(i64 8, ptr %22) #16
  call void @llvm.lifetime.end.p0(i64 8, ptr %21) #16
  call void @llvm.lifetime.end.p0(i64 8, ptr %20) #16
  call void @llvm.lifetime.end.p0(i64 8, ptr %19) #16
  call void @llvm.lifetime.end.p0(i64 2, ptr %18) #16
  call void @llvm.lifetime.end.p0(i64 1, ptr %17) #16
  call void @llvm.lifetime.end.p0(i64 1, ptr %16) #16
  call void @llvm.lifetime.end.p0(i64 4, ptr %15) #16
  call void @llvm.lifetime.end.p0(i64 4, ptr %14) #16
  call void @llvm.lifetime.end.p0(i64 4, ptr %13) #16
  call void @llvm.lifetime.end.p0(i64 4, ptr %12) #16
  call void @llvm.lifetime.end.p0(i64 4, ptr %11) #16
  ret void
}