; Function Attrs: null_pointer_is_valid sspstrong uwtable
define internal fastcc void @dissect_sa_tek(ptr noundef %0, ptr noundef %1, i32 noundef %2, i32 noundef range(i32 -4, 65532) %3, ptr noundef %4) unnamed_addr #0 {
  %6 = alloca i32, align 4
  %7 = alloca i32, align 4
  %8 = alloca i32, align 4
  call void @llvm.lifetime.start.p0(i64 4, ptr nonnull %6) #20
  call void @llvm.lifetime.start.p0(i64 4, ptr nonnull %7) #20
  call void @llvm.lifetime.start.p0(i64 4, ptr nonnull %8) #20
  %9 = tail call zeroext i8 @tvb_get_uint8(ptr noundef %0, i32 noundef %2)
  %10 = add i32 %2, 2
  %11 = tail call zeroext i16 @tvb_get_ntohs(ptr noundef %0, i32 noundef %10)
  %12 = zext i16 %11 to i32
  %13 = add i32 %2, %12
  %14 = load i32, ptr @hf_isakmp_typepayload, align 4
  %15 = tail call ptr @proto_tree_add_uint(ptr noundef %4, i32 noundef %14, ptr noundef %0, i32 noundef %2, i32 noundef %12, i32 noundef 16)
  %16 = load i32, ptr @ett_isakmp_payload, align 4
  %17 = tail call ptr @proto_item_add_subtree(ptr noundef %15, i32 noundef %16)
  %18 = load i32, ptr @hf_isakmp_sat_next_payload, align 4
  %19 = tail call ptr @proto_tree_add_item(ptr noundef %17, i32 noundef %18, ptr noundef %0, i32 noundef %2, i32 noundef 1, i32 noundef 0)
  %20 = load i32, ptr @hf_isakmp_sat_reserved, align 4
  %21 = add i32 %2, 1
  %22 = tail call ptr @proto_tree_add_item(ptr noundef %17, i32 noundef %20, ptr noundef %0, i32 noundef %21, i32 noundef 1, i32 noundef 0)
  %23 = load i32, ptr @hf_isakmp_sat_payload_len, align 4
  %24 = tail call ptr @proto_tree_add_item(ptr noundef %17, i32 noundef %23, ptr noundef %0, i32 noundef %10, i32 noundef 2, i32 noundef 0)
  %25 = add i32 %2, 4
  %26 = load i32, ptr @hf_isakmp_sat_protocol_id, align 4
  %27 = call ptr @proto_tree_add_item_ret_uint(ptr noundef %17, i32 noundef %26, ptr noundef %0, i32 noundef %25, i32 noundef 1, i32 noundef 0, ptr noundef nonnull %6)
  %28 = add i32 %2, 5
  %29 = load i32, ptr %6, align 4
  %30 = add i32 %29, -1
  %or.cond = icmp ult i32 %30, 2
  br i1 %or.cond, label %31, label %87

31:                                               ; preds = %5
  %32 = load i32, ptr @hf_isakmp_sat_protocol, align 4
  %33 = call ptr @proto_tree_add_item(ptr noundef %17, i32 noundef %32, ptr noundef %0, i32 noundef %28, i32 noundef 1, i32 noundef 0)
  %34 = add i32 %2, 6
  %35 = call zeroext i8 @tvb_get_uint8(ptr noundef %0, i32 noundef %34)
  %36 = load i32, ptr @hf_isakmp_sat_src_id_type, align 4
  %37 = call ptr @proto_tree_add_item(ptr noundef %17, i32 noundef %36, ptr noundef %0, i32 noundef %34, i32 noundef 1, i32 noundef 0)
  %38 = add i32 %2, 7
  %39 = load i32, ptr @hf_isakmp_sat_src_id_port, align 4
  %40 = call ptr @proto_tree_add_item(ptr noundef %17, i32 noundef %39, ptr noundef %0, i32 noundef %38, i32 noundef 2, i32 noundef 0)
  %41 = add i32 %2, 9
  %42 = load i32, ptr @hf_isakmp_sat_src_id_length, align 4
  %43 = call ptr @proto_tree_add_item_ret_uint(ptr noundef %17, i32 noundef %42, ptr noundef %0, i32 noundef %41, i32 noundef 2, i32 noundef 0, ptr noundef nonnull %7)
  %44 = add i32 %2, 11
  %45 = load i32, ptr %7, align 4
  %.not = icmp eq i32 %45, 0
  br i1 %.not, label %54, label %46

46:                                               ; preds = %31
  %47 = load i32, ptr @hf_isakmp_sat_src_id_data, align 4
  %48 = call ptr @proto_tree_add_item(ptr noundef %17, i32 noundef %47, ptr noundef %0, i32 noundef %44, i32 noundef %45, i32 noundef 0)
  %49 = load i32, ptr @ett_isakmp_id, align 4
  %50 = call ptr @proto_item_add_subtree(ptr noundef %48, i32 noundef %49)
  %51 = load i32, ptr %7, align 4
  call fastcc void @dissect_id_type(ptr noundef %0, i32 noundef %44, i32 noundef %51, i8 noundef zeroext %35, ptr noundef %50, ptr noundef %48, ptr noundef %1)
  %52 = load i32, ptr %7, align 4
  %53 = add i32 %52, %44
  br label %54

54:                                               ; preds = %46, %31
  %.0 = phi i32 [ %53, %46 ], [ %44, %31 ]
  %55 = call zeroext i8 @tvb_get_uint8(ptr noundef %0, i32 noundef %.0)
  %56 = load i32, ptr @hf_isakmp_sat_dst_id_type, align 4
  %57 = call ptr @proto_tree_add_item(ptr noundef %17, i32 noundef %56, ptr noundef %0, i32 noundef %.0, i32 noundef 1, i32 noundef 0)
  %58 = add i32 %.0, 1
  %59 = load i32, ptr @hf_isakmp_sat_dst_id_port, align 4
  %60 = call ptr @proto_tree_add_item(ptr noundef %17, i32 noundef %59, ptr noundef %0, i32 noundef %58, i32 noundef 2, i32 noundef 0)
  %61 = add i32 %.0, 3
  %62 = load i32, ptr @hf_isakmp_sat_dst_id_length, align 4
  %63 = call ptr @proto_tree_add_item_ret_uint(ptr noundef %17, i32 noundef %62, ptr noundef %0, i32 noundef %61, i32 noundef 2, i32 noundef 0, ptr noundef nonnull %8)
  %64 = add i32 %.0, 5
  %65 = load i32, ptr %8, align 4
  %.not111 = icmp eq i32 %65, 0
  br i1 %.not111, label %74, label %66

66:                                               ; preds = %54
  %67 = load i32, ptr @hf_isakmp_sat_dst_id_data, align 4
  %68 = call ptr @proto_tree_add_item(ptr noundef %17, i32 noundef %67, ptr noundef %0, i32 noundef %64, i32 noundef %65, i32 noundef 0)
  %69 = load i32, ptr @ett_isakmp_id, align 4
  %70 = call ptr @proto_item_add_subtree(ptr noundef %68, i32 noundef %69)
  %71 = load i32, ptr %8, align 4
  call fastcc void @dissect_id_type(ptr noundef %0, i32 noundef %64, i32 noundef %71, i8 noundef zeroext %55, ptr noundef %70, ptr noundef %68, ptr noundef %1)
  %72 = load i32, ptr %8, align 4
  %73 = add i32 %72, %64
  br label %74

74:                                               ; preds = %66, %54
  %.1 = phi i32 [ %73, %66 ], [ %64, %54 ]
  %75 = load i32, ptr @hf_isakmp_sat_transform_id, align 4
  %76 = call ptr @proto_tree_add_item(ptr noundef %17, i32 noundef %75, ptr noundef %0, i32 noundef %.1, i32 noundef 1, i32 noundef 0)
  %77 = add i32 %.1, 1
  %78 = load i32, ptr @hf_isakmp_sat_spi, align 4
  %79 = call ptr @proto_tree_add_item(ptr noundef %17, i32 noundef %78, ptr noundef %0, i32 noundef %77, i32 noundef 4, i32 noundef 0)
  %80 = add i32 %.1, 5
  %81 = icmp slt i32 %80, %13
  br i1 %81, label %.lr.ph, label %._crit_edge

.lr.ph:                                           ; preds = %74, %.lr.ph
  %.2112 = phi i32 [ %83, %.lr.ph ], [ %80, %74 ]
  %82 = call fastcc i32 @dissect_ipsec_attribute(ptr noundef %0, ptr noundef %1, ptr noundef %17, i32 noundef %.2112)
  %83 = add i32 %82, %.2112
  %84 = icmp slt i32 %83, %13
  br i1 %84, label %.lr.ph, label %._crit_edge, !llvm.loop !50

._crit_edge:                                      ; preds = %.lr.ph, %74
  %.2.lcssa = phi i32 [ %80, %74 ], [ %83, %.lr.ph ]
  %85 = icmp eq i8 %9, 16
  br i1 %85, label %86, label %91

86:                                               ; preds = %._crit_edge
  call void @increment_dissection_depth(ptr noundef %1)
  call fastcc void @dissect_sa_tek(ptr noundef %0, ptr noundef %1, i32 noundef %.2.lcssa, i32 noundef %3, ptr noundef %4)
  call void @decrement_dissection_depth(ptr noundef %1)
  br label %91

87:                                               ; preds = %5
  %88 = load i32, ptr @hf_isakmp_sat_payload, align 4
  %89 = add nsw i32 %3, -5
  %90 = call ptr @proto_tree_add_item(ptr noundef %17, i32 noundef %88, ptr noundef %0, i32 noundef %28, i32 noundef %89, i32 noundef 0)
  br label %91

91:                                               ; preds = %._crit_edge, %86, %87
  call void @llvm.lifetime.end.p0(i64 4, ptr nonnull %8) #20
  call void @llvm.lifetime.end.p0(i64 4, ptr nonnull %7) #20
  call void @llvm.lifetime.end.p0(i64 4, ptr nonnull %6) #20
  ret void
}